Archive member included to satisfy reference by file (symbol)

/usr/lib/gcc/arm-none-eabi/6.3.1/thumb/v7e-m/libgcc.a(_arm_addsubdf3.o)
                              obj/timer_pre.o (__aeabi_dsub)
/usr/lib/gcc/arm-none-eabi/6.3.1/thumb/v7e-m/libgcc.a(_arm_muldivdf3.o)
                              obj/algebra.o (__aeabi_dmul)
/usr/lib/gcc/arm-none-eabi/6.3.1/thumb/v7e-m/libgcc.a(_arm_cmpdf2.o)
                              obj/algebra.o (__aeabi_dcmpgt)
/usr/lib/gcc/arm-none-eabi/6.3.1/thumb/v7e-m/libgcc.a(_arm_fixunsdfsi.o)
                              obj/timer_pre.o (__aeabi_d2uiz)

Discarded input sections

 .data          0x0000000000000000        0x0 obj/setup.o
 .bss           0x0000000000000000        0x0 obj/setup.o
 .text          0x0000000000000000        0x0 obj/p2_vtable.o
 .data          0x0000000000000000        0x0 obj/p2_vtable.o
 .bss           0x0000000000000000        0x0 obj/p2_vtable.o
 .data          0x0000000000000000        0x0 obj/rand.o
 .text          0x0000000000000000        0x0 obj/linkedList.o
 .data          0x0000000000000000        0x0 obj/linkedList.o
 .bss           0x0000000000000000        0x0 obj/linkedList.o
 .debug_info    0x0000000000000000       0x64 obj/linkedList.o
 .debug_abbrev  0x0000000000000000       0x26 obj/linkedList.o
 .debug_aranges
                0x0000000000000000       0x18 obj/linkedList.o
 .debug_line    0x0000000000000000       0x1d obj/linkedList.o
 .debug_str     0x0000000000000000      0x103 obj/linkedList.o
 .comment       0x0000000000000000       0x32 obj/linkedList.o
 .ARM.attributes
                0x0000000000000000       0x33 obj/linkedList.o
 .text          0x0000000000000000      0x7d4 obj/timer_speed.o
 .data          0x0000000000000000        0x0 obj/timer_speed.o
 .bss           0x0000000000000000        0x1 obj/timer_speed.o
 .rodata        0x0000000000000000        0xc obj/timer_speed.o
 .debug_info    0x0000000000000000      0x792 obj/timer_speed.o
 .debug_abbrev  0x0000000000000000      0x1bf obj/timer_speed.o
 .debug_aranges
                0x0000000000000000       0x20 obj/timer_speed.o
 .debug_ranges  0x0000000000000000       0x48 obj/timer_speed.o
 .debug_line    0x0000000000000000      0x172 obj/timer_speed.o
 .debug_str     0x0000000000000000      0x30d obj/timer_speed.o
 .comment       0x0000000000000000       0x32 obj/timer_speed.o
 .debug_frame   0x0000000000000000      0x20c obj/timer_speed.o
 .ARM.attributes
                0x0000000000000000       0x33 obj/timer_speed.o
 .text          0x0000000000000000       0x60 obj/timer_src.o
 .data          0x0000000000000000        0x0 obj/timer_src.o
 .bss           0x0000000000000000        0x8 obj/timer_src.o
 .rodata        0x0000000000000000        0xc obj/timer_src.o
 .debug_info    0x0000000000000000      0x167 obj/timer_src.o
 .debug_abbrev  0x0000000000000000       0x9f obj/timer_src.o
 .debug_aranges
                0x0000000000000000       0x20 obj/timer_src.o
 .debug_line    0x0000000000000000       0xb8 obj/timer_src.o
 .debug_str     0x0000000000000000      0x1b6 obj/timer_src.o
 .comment       0x0000000000000000       0x32 obj/timer_src.o
 .debug_frame   0x0000000000000000       0xa0 obj/timer_src.o
 .ARM.attributes
                0x0000000000000000       0x33 obj/timer_src.o
 .data          0x0000000000000000        0x0 obj/io.o
 .bss           0x0000000000000000        0x0 obj/io.o
 .data          0x0000000000000000        0x0 obj/timer_enable.o
 .bss           0x0000000000000000        0x0 obj/timer_enable.o
 .rodata        0x0000000000000000        0x4 obj/timer_enable.o
 .data          0x0000000000000000        0x0 obj/gpio.o
 .data          0x0000000000000000        0x0 obj/algebra.o
 .bss           0x0000000000000000        0x0 obj/algebra.o
 .text          0x0000000000000000        0x0 obj/analog.o
 .data          0x0000000000000000       0x28 obj/analog.o
 .bss           0x0000000000000000        0x0 obj/analog.o
 .debug_info    0x0000000000000000      0x13d obj/analog.o
 .debug_abbrev  0x0000000000000000       0x52 obj/analog.o
 .debug_aranges
                0x0000000000000000       0x18 obj/analog.o
 .debug_line    0x0000000000000000       0x84 obj/analog.o
 .debug_str     0x0000000000000000      0x174 obj/analog.o
 .comment       0x0000000000000000       0x32 obj/analog.o
 .ARM.attributes
                0x0000000000000000       0x33 obj/analog.o
 .data          0x0000000000000000        0x0 obj/main.o
 .bss           0x0000000000000000        0x0 obj/main.o
 .data          0x0000000000000000        0x0 /usr/lib/gcc/arm-none-eabi/6.3.1/thumb/v7e-m/libgcc.a(_arm_addsubdf3.o)
 .bss           0x0000000000000000        0x0 /usr/lib/gcc/arm-none-eabi/6.3.1/thumb/v7e-m/libgcc.a(_arm_addsubdf3.o)
 .data          0x0000000000000000        0x0 /usr/lib/gcc/arm-none-eabi/6.3.1/thumb/v7e-m/libgcc.a(_arm_muldivdf3.o)
 .bss           0x0000000000000000        0x0 /usr/lib/gcc/arm-none-eabi/6.3.1/thumb/v7e-m/libgcc.a(_arm_muldivdf3.o)
 .data          0x0000000000000000        0x0 /usr/lib/gcc/arm-none-eabi/6.3.1/thumb/v7e-m/libgcc.a(_arm_cmpdf2.o)
 .bss           0x0000000000000000        0x0 /usr/lib/gcc/arm-none-eabi/6.3.1/thumb/v7e-m/libgcc.a(_arm_cmpdf2.o)
 .data          0x0000000000000000        0x0 /usr/lib/gcc/arm-none-eabi/6.3.1/thumb/v7e-m/libgcc.a(_arm_fixunsdfsi.o)
 .bss           0x0000000000000000        0x0 /usr/lib/gcc/arm-none-eabi/6.3.1/thumb/v7e-m/libgcc.a(_arm_fixunsdfsi.o)

Memory Configuration

Name             Origin             Length             Attributes
FLASH            0x0000000008000000 0x0000000000080000 xr
RAM              0x0000000020000000 0x0000000000018000 xrw
*default*        0x0000000000000000 0xffffffffffffffff

Linker script and memory map

LOAD obj/setup.o
LOAD obj/p2_vtable.o
LOAD obj/rand.o
LOAD obj/linkedList.o
LOAD obj/timer_pre.o
LOAD obj/timer_speed.o
LOAD obj/timer_src.o
LOAD obj/io.o
LOAD obj/timer_enable.o
LOAD obj/gpio.o
LOAD obj/algebra.o
LOAD obj/analog.o
LOAD obj/main.o
LOAD /usr/lib/gcc/arm-none-eabi/6.3.1/thumb/v7e-m/libgcc.a
                0x0000000020017fff                _estack = 0x20017fff
                0x0000000000000400                _Min_Leftover_RAM = 0x400

.vector_table   0x0000000008000000      0x158
                0x0000000008000000                . = ALIGN (0x4)
 *(.vector_table)
 .vector_table  0x0000000008000000      0x158 obj/p2_vtable.o
                0x0000000008000000                vtable
                0x0000000008000158                . = ALIGN (0x4)

.preinit_array  0x0000000008000158        0x0
                0x0000000008000158                . = ALIGN (0x4)
                0x0000000008000158                _spreinit_array = .
 *(.preinit_array)
 *(.preinit_array*)
                0x0000000008000158                _epreinit_array = .
                0x0000000008000158                . = ALIGN (0x4)

.init_array     0x0000000008000158        0x4
                0x0000000008000158                . = ALIGN (0x4)
                0x0000000008000158                _sinit_array = .
 *(.init_array)
 .init_array    0x0000000008000158        0x4 obj/timer_pre.o
 *(.init_array*)
                0x000000000800015c                _einit_array = .
                0x000000000800015c                . = ALIGN (0x4)

.fini_array     0x000000000800015c        0x0
                0x000000000800015c                . = ALIGN (0x4)
                0x000000000800015c                _sfini_array = .
 *(.fini_array)
 *(.fini_array*)
                0x000000000800015c                _efini_array = .
                0x000000000800015c                . = ALIGN (0x4)

.text           0x000000000800015c     0x19e0
                0x000000000800015c                . = ALIGN (0x4)
 *(.text)
 .text          0x000000000800015c       0xbc obj/setup.o
                0x000000000800015c                reset_handler
 .text          0x0000000008000218       0x68 obj/rand.o
                0x0000000008000218                seed(unsigned long)
                0x0000000008000240                sudo_randomUint32()
 .text          0x0000000008000280      0x42c obj/timer_pre.o
                0x0000000008000280                Sample_Prescalar(unsigned long (pre::*)() const)
                0x00000000080002ac                Configure_Prescalar(void (pre::*)(unsigned long) const, unsigned long)
                0x00000000080002dc                pre::PLLN() const
                0x0000000008000300                pre::PLLP() const
                0x000000000800032c                pre::PLLM() const
                0x0000000008000350                pre::AHB1() const
                0x000000000800038c                pre::APB1() const
                0x00000000080003b8                pre::APB2() const
                0x00000000080003e4                pre::ADC1() const
                0x000000000800040c                pre::PLLN(unsigned long) const
                0x0000000008000430                pre::PLLP(unsigned long) const
                0x00000000080004a0                pre::PLLM(unsigned long) const
                0x00000000080004c4                pre::AHB1(unsigned long) const
                0x0000000008000550                pre::APB1(unsigned long) const
                0x00000000080005d0                pre::APB2(unsigned long) const
                0x000000000800062c                pre::ADC1(unsigned long) const
 .text          0x00000000080006ac       0xaa obj/io.o
                0x00000000080006ac                out(unsigned long volatile*, unsigned long, unsigned long, unsigned long)
                0x00000000080006ee                clear(unsigned long volatile*, unsigned long, unsigned long)
                0x0000000008000728                in(unsigned long const volatile*, unsigned long, unsigned long)
 *fill*         0x0000000008000756        0x2 
 .text          0x0000000008000758       0x68 obj/timer_enable.o
                0x0000000008000758                enable_timer(GPIO_Addr)
                0x000000000800078c                disable_timer(GPIO_Addr)
 .text          0x00000000080007c0      0x230 obj/gpio.o
                0x00000000080007c0                GPIO::GPIO(GPIO_Addr, GPIO_Pin)
                0x00000000080007c0                GPIO::GPIO(GPIO_Addr, GPIO_Pin)
                0x0000000008000854                GPIO::~GPIO()
                0x0000000008000854                GPIO::~GPIO()
                0x0000000008000900                GPIO::Configure_MODER(MODER_vals)
                0x0000000008000928                GPIO::Configure_OTYPER(OTYPER_vals)
                0x000000000800094e                GPIO::Configure_OSPEEDR(OSPEEDR_vals)
                0x0000000008000976                GPIO::Configure_PUPDR(PUPDR_vals)
                0x000000000800099e                GPIO::Configure_ODR(STATE)
                0x00000000080009c4                GPIO::Sample_IDR()
 .text          0x00000000080009f0       0xf8 obj/algebra.o
                0x0000000008000a50                log_2(double)
                0x0000000008000a70                map(double, double, double, double, double)
 .text          0x0000000008000ae8      0x76c obj/main.o
                0x0000000008000ae8                sleep(unsigned long)
                0x0000000008000b18                main
 .text          0x0000000008001254      0x370 /usr/lib/gcc/arm-none-eabi/6.3.1/thumb/v7e-m/libgcc.a(_arm_addsubdf3.o)
                0x0000000008001254                __aeabi_drsub
                0x000000000800125c                __aeabi_dsub
                0x000000000800125c                __subdf3
                0x0000000008001260                __adddf3
                0x0000000008001260                __aeabi_dadd
                0x00000000080014d8                __aeabi_ui2d
                0x00000000080014d8                __floatunsidf
                0x00000000080014f8                __floatsidf
                0x00000000080014f8                __aeabi_i2d
                0x000000000800151c                __extendsfdf2
                0x000000000800151c                __aeabi_f2d
                0x0000000008001558                __aeabi_ul2d
                0x0000000008001558                __floatundidf
                0x0000000008001568                __floatdidf
                0x0000000008001568                __aeabi_l2d
 .text          0x00000000080015c4      0x424 /usr/lib/gcc/arm-none-eabi/6.3.1/thumb/v7e-m/libgcc.a(_arm_muldivdf3.o)
                0x00000000080015c4                __aeabi_dmul
                0x00000000080015c4                __muldf3
                0x0000000008001818                __aeabi_ddiv
                0x0000000008001818                __divdf3
 .text          0x00000000080019e8      0x110 /usr/lib/gcc/arm-none-eabi/6.3.1/thumb/v7e-m/libgcc.a(_arm_cmpdf2.o)
                0x00000000080019e8                __gtdf2
                0x00000000080019e8                __gedf2
                0x00000000080019f0                __ltdf2
                0x00000000080019f0                __ledf2
                0x00000000080019f8                __cmpdf2
                0x00000000080019f8                __eqdf2
                0x00000000080019f8                __nedf2
                0x0000000008001a74                __aeabi_cdrcmple
                0x0000000008001a84                __aeabi_cdcmple
                0x0000000008001a84                __aeabi_cdcmpeq
                0x0000000008001a94                __aeabi_dcmpeq
                0x0000000008001aa8                __aeabi_dcmplt
                0x0000000008001abc                __aeabi_dcmple
                0x0000000008001ad0                __aeabi_dcmpge
                0x0000000008001ae4                __aeabi_dcmpgt
 .text          0x0000000008001af8       0x40 /usr/lib/gcc/arm-none-eabi/6.3.1/thumb/v7e-m/libgcc.a(_arm_fixunsdfsi.o)
                0x0000000008001af8                __fixunsdfsi
                0x0000000008001af8                __aeabi_d2uiz
 *(.text*)
 .text.default_interrupt_handler
                0x0000000008001b38        0x2 obj/p2_vtable.o
                0x0000000008001b38                PVD_IRQ_handler
                0x0000000008001b38                DMA1_S0_IRQ_handler
                0x0000000008001b38                DMA2_S0_IRQ_handler
                0x0000000008001b38                usage_handler
                0x0000000008001b38                DMA2_S5_IRQ_handler
                0x0000000008001b38                NMI_handler
                0x0000000008001b38                I2C3_EV_IRQ_handler
                0x0000000008001b38                pending_SV_handler
                0x0000000008001b38                USART1_IRQ_handler
                0x0000000008001b38                TIM1_CC_IRQ_handler
                0x0000000008001b38                DMA2_S1_IRQ_handler
                0x0000000008001b38                default_interrupt_handler
                0x0000000008001b38                DMA1_S5_IRQ_handler
                0x0000000008001b38                SPI1_IRQ_handler
                0x0000000008001b38                DMA2_S4_IRQ_handler
                0x0000000008001b38                I2C3_ER_IRQ_handler
                0x0000000008001b38                OTG_IRQ_handler
                0x0000000008001b38                TIM3_IRQ_handler
                0x0000000008001b38                RTC_Alarm_IRQ_handler
                0x0000000008001b38                RTC_IRQ_handler
                0x0000000008001b38                I2C1_EV_IRQ_handler
                0x0000000008001b38                DMA1_S2_IRQ_handler
                0x0000000008001b38                EXTI4_IRQ_handler
                0x0000000008001b38                ADC_IRQ_handler
                0x0000000008001b38                MMF_handler
                0x0000000008001b38                DMA1_S7_IRQ_handler
                0x0000000008001b38                EXTI1_IRQ_handler
                0x0000000008001b38                SVC_handler
                0x0000000008001b38                SYSTick_handler
                0x0000000008001b38                TIM5_IRQ_handler
                0x0000000008001b38                DMA2_S6_IRQ_handler
                0x0000000008001b38                TAMP_IRQ_handler
                0x0000000008001b38                TIM2_IRQ_handler
                0x0000000008001b38                DMA2_S3_IRQ_handler
                0x0000000008001b38                USART6_IRQ_handler
                0x0000000008001b38                hard_handler
                0x0000000008001b38                TIM1_UP_IRQ_handler
                0x0000000008001b38                DMA2_S2_IRQ_handler
                0x0000000008001b38                DMA1_S6_IRQ_handler
                0x0000000008001b38                FPU_IRQ_handler
                0x0000000008001b38                I2C1_ER_IRQ_handler
                0x0000000008001b38                EXTI2_IRQ_handler
                0x0000000008001b38                EXTI3_IRQ_handler
                0x0000000008001b38                DMA1_S3_IRQ_handler
                0x0000000008001b38                RCC_IRQ_handler
                0x0000000008001b38                DMA1_S1_IRQ_handler
                0x0000000008001b38                SPI2_IRQ_handler
                0x0000000008001b38                DMA1_S4_IRQ_handler
                0x0000000008001b38                EXTI15_IRQ_handler
                0x0000000008001b38                EXTI0_IRQ_handler
                0x0000000008001b38                DMA2_S7_IRQ_handler
                0x0000000008001b38                bus_handler
                0x0000000008001b38                USART2_IRQ_handler
                0x0000000008001b38                TIM1_BR_IRQ_handler
                0x0000000008001b38                SPI3_IRQ_handler
                0x0000000008001b38                SDIO_IRQ_handler
                0x0000000008001b38                TIM1_TC_IRQ_handler
                0x0000000008001b38                OTG_WKUP_IRQ_handler
                0x0000000008001b38                flash_IRQ_handler
                0x0000000008001b38                SPI4_IRQ_handler
                0x0000000008001b3c                . = ALIGN (0x4)
 *fill*         0x0000000008001b3a        0x2 

.glue_7         0x0000000008001b3c        0x0
 .glue_7        0x0000000008001b3c        0x0 linker stubs

.glue_7t        0x0000000008001b3c        0x0
 .glue_7t       0x0000000008001b3c        0x0 linker stubs

.vfp11_veneer   0x0000000008001b3c        0x0
 .vfp11_veneer  0x0000000008001b3c        0x0 linker stubs

.v4_bx          0x0000000008001b3c        0x0
 .v4_bx         0x0000000008001b3c        0x0 linker stubs

.iplt           0x0000000008001b3c        0x0
 .iplt          0x0000000008001b3c        0x0 obj/setup.o

.rel.dyn        0x0000000008001b3c        0x0
 .rel.iplt      0x0000000008001b3c        0x0 obj/setup.o

.rodata         0x0000000008001b3c        0x0
                0x0000000008001b3c                . = ALIGN (0x4)
 *(.rodata)
 *(.rodata*)
                0x0000000008001b3c                . = ALIGN (0x4)
                0x0000000008001b3c                _sidata = .

.data           0x0000000020000000        0xc load address 0x0000000008001b3c
                0x0000000020000000                . = ALIGN (0x4)
                0x0000000020000000                _sdata = .
 *(.data)
 .data          0x0000000020000000        0xc obj/timer_pre.o
 *(.data*)
                0x000000002000000c                _edata = .
                0x000000002000000c                . = ALIGN (0x4)

.igot.plt       0x000000002000000c        0x0 load address 0x0000000008001b48
 .igot.plt      0x000000002000000c        0x0 obj/setup.o

.bss            0x0000000020000010       0x2c load address 0x0000000008001b50
                0x0000000020000010                . = ALIGN (0x4)
                0x0000000020000010                _sbss = .
 *(.bss)
 .bss           0x0000000020000010        0x5 obj/rand.o
 *fill*         0x0000000020000015        0x3 
 .bss           0x0000000020000018       0x10 obj/timer_pre.o
 .bss           0x0000000020000028       0x14 obj/gpio.o
                0x0000000020000028                GPIO::counts
 *(.bss*)
 *(COMMON)
                0x000000002000003c                . = ALIGN (0x4)
                0x000000002000003c                _ebss = .

.dynamic_allocations
                0x000000002000003c      0x400 load address 0x0000000008001b7c
                0x000000002000003c                . = ALIGN (0x4)
                0x000000002000003c                _ssystem_ram = .
                0x000000002000043c                . = (. + _Min_Leftover_RAM)
 *fill*         0x000000002000003c      0x400 
                0x000000002000043c                . = ALIGN (0x4)
                0x000000002000043c                _esystem_ram = .
OUTPUT(bin/main.elf elf32-littlearm)

.debug_info     0x0000000000000000     0x1bd1
 .debug_info    0x0000000000000000      0x194 obj/setup.o
 .debug_info    0x0000000000000194       0xe5 obj/rand.o
 .debug_info    0x0000000000000279      0x684 obj/timer_pre.o
 .debug_info    0x00000000000008fd      0x19c obj/io.o
 .debug_info    0x0000000000000a99      0x12f obj/timer_enable.o
 .debug_info    0x0000000000000bc8      0x651 obj/gpio.o
 .debug_info    0x0000000000001219      0x127 obj/algebra.o
 .debug_info    0x0000000000001340      0x58d obj/main.o
 .debug_info    0x00000000000018cd       0xc1 /usr/lib/gcc/arm-none-eabi/6.3.1/thumb/v7e-m/libgcc.a(_arm_addsubdf3.o)
 .debug_info    0x000000000000198e       0xc1 /usr/lib/gcc/arm-none-eabi/6.3.1/thumb/v7e-m/libgcc.a(_arm_muldivdf3.o)
 .debug_info    0x0000000000001a4f       0xc1 /usr/lib/gcc/arm-none-eabi/6.3.1/thumb/v7e-m/libgcc.a(_arm_cmpdf2.o)
 .debug_info    0x0000000000001b10       0xc1 /usr/lib/gcc/arm-none-eabi/6.3.1/thumb/v7e-m/libgcc.a(_arm_fixunsdfsi.o)

.debug_abbrev   0x0000000000000000      0x8f3
 .debug_abbrev  0x0000000000000000       0xb0 obj/setup.o
 .debug_abbrev  0x00000000000000b0       0x96 obj/rand.o
 .debug_abbrev  0x0000000000000146      0x192 obj/timer_pre.o
 .debug_abbrev  0x00000000000002d8       0xba obj/io.o
 .debug_abbrev  0x0000000000000392       0xb1 obj/timer_enable.o
 .debug_abbrev  0x0000000000000443      0x219 obj/gpio.o
 .debug_abbrev  0x000000000000065c       0x96 obj/algebra.o
 .debug_abbrev  0x00000000000006f2      0x1b1 obj/main.o
 .debug_abbrev  0x00000000000008a3       0x14 /usr/lib/gcc/arm-none-eabi/6.3.1/thumb/v7e-m/libgcc.a(_arm_addsubdf3.o)
 .debug_abbrev  0x00000000000008b7       0x14 /usr/lib/gcc/arm-none-eabi/6.3.1/thumb/v7e-m/libgcc.a(_arm_muldivdf3.o)
 .debug_abbrev  0x00000000000008cb       0x14 /usr/lib/gcc/arm-none-eabi/6.3.1/thumb/v7e-m/libgcc.a(_arm_cmpdf2.o)
 .debug_abbrev  0x00000000000008df       0x14 /usr/lib/gcc/arm-none-eabi/6.3.1/thumb/v7e-m/libgcc.a(_arm_fixunsdfsi.o)

.debug_aranges  0x0000000000000000      0x180
 .debug_aranges
                0x0000000000000000       0x20 obj/setup.o
 .debug_aranges
                0x0000000000000020       0x20 obj/rand.o
 .debug_aranges
                0x0000000000000040       0x20 obj/timer_pre.o
 .debug_aranges
                0x0000000000000060       0x20 obj/io.o
 .debug_aranges
                0x0000000000000080       0x20 obj/timer_enable.o
 .debug_aranges
                0x00000000000000a0       0x20 obj/gpio.o
 .debug_aranges
                0x00000000000000c0       0x20 obj/algebra.o
 .debug_aranges
                0x00000000000000e0       0x20 obj/main.o
 .debug_aranges
                0x0000000000000100       0x20 /usr/lib/gcc/arm-none-eabi/6.3.1/thumb/v7e-m/libgcc.a(_arm_addsubdf3.o)
 .debug_aranges
                0x0000000000000120       0x20 /usr/lib/gcc/arm-none-eabi/6.3.1/thumb/v7e-m/libgcc.a(_arm_muldivdf3.o)
 .debug_aranges
                0x0000000000000140       0x20 /usr/lib/gcc/arm-none-eabi/6.3.1/thumb/v7e-m/libgcc.a(_arm_cmpdf2.o)
 .debug_aranges
                0x0000000000000160       0x20 /usr/lib/gcc/arm-none-eabi/6.3.1/thumb/v7e-m/libgcc.a(_arm_fixunsdfsi.o)

.debug_line     0x0000000000000000      0xbf1
 .debug_line    0x0000000000000000       0xdd obj/setup.o
 .debug_line    0x00000000000000dd       0x98 obj/rand.o
 .debug_line    0x0000000000000175      0x111 obj/timer_pre.o
 .debug_line    0x0000000000000286       0x9a obj/io.o
 .debug_line    0x0000000000000320       0xb2 obj/timer_enable.o
 .debug_line    0x00000000000003d2       0xdc obj/gpio.o
 .debug_line    0x00000000000004ae       0x58 obj/algebra.o
 .debug_line    0x0000000000000506      0x295 obj/main.o
 .debug_line    0x000000000000079b      0x183 /usr/lib/gcc/arm-none-eabi/6.3.1/thumb/v7e-m/libgcc.a(_arm_addsubdf3.o)
 .debug_line    0x000000000000091e      0x19f /usr/lib/gcc/arm-none-eabi/6.3.1/thumb/v7e-m/libgcc.a(_arm_muldivdf3.o)
 .debug_line    0x0000000000000abd       0xbe /usr/lib/gcc/arm-none-eabi/6.3.1/thumb/v7e-m/libgcc.a(_arm_cmpdf2.o)
 .debug_line    0x0000000000000b7b       0x76 /usr/lib/gcc/arm-none-eabi/6.3.1/thumb/v7e-m/libgcc.a(_arm_fixunsdfsi.o)

.debug_str      0x0000000000000000      0x7c0
 .debug_str     0x0000000000000000      0x143 obj/setup.o
                                        0x17f (size before relaxing)
 .debug_str     0x0000000000000143       0x5b obj/rand.o
                                        0x154 (size before relaxing)
 .debug_str     0x000000000000019e      0x21f obj/timer_pre.o
                                        0x347 (size before relaxing)
 .debug_str     0x00000000000003bd       0x4d obj/io.o
                                        0x156 (size before relaxing)
 .debug_str     0x000000000000040a       0x8e obj/timer_enable.o
                                        0x1a7 (size before relaxing)
 .debug_str     0x0000000000000498      0x24b obj/gpio.o
                                        0x447 (size before relaxing)
 .debug_str     0x00000000000006e3       0x51 obj/algebra.o
                                        0x14e (size before relaxing)
 .debug_str     0x0000000000000734       0x8c obj/main.o
                                        0x474 (size before relaxing)

.comment        0x0000000000000000       0x31
 .comment       0x0000000000000000       0x31 obj/setup.o
                                         0x32 (size before relaxing)
 .comment       0x0000000000000031       0x32 obj/rand.o
 .comment       0x0000000000000031       0x32 obj/timer_pre.o
 .comment       0x0000000000000031       0x32 obj/io.o
 .comment       0x0000000000000031       0x32 obj/timer_enable.o
 .comment       0x0000000000000031       0x32 obj/gpio.o
 .comment       0x0000000000000031       0x32 obj/algebra.o
 .comment       0x0000000000000031       0x32 obj/main.o

.ARM.attributes
                0x0000000000000000       0x31
 .ARM.attributes
                0x0000000000000000       0x33 obj/setup.o
 .ARM.attributes
                0x0000000000000033       0x21 obj/p2_vtable.o
 .ARM.attributes
                0x0000000000000054       0x33 obj/rand.o
 .ARM.attributes
                0x0000000000000087       0x33 obj/timer_pre.o
 .ARM.attributes
                0x00000000000000ba       0x33 obj/io.o
 .ARM.attributes
                0x00000000000000ed       0x33 obj/timer_enable.o
 .ARM.attributes
                0x0000000000000120       0x33 obj/gpio.o
 .ARM.attributes
                0x0000000000000153       0x33 obj/algebra.o
 .ARM.attributes
                0x0000000000000186       0x33 obj/main.o
 .ARM.attributes
                0x00000000000001b9       0x1e /usr/lib/gcc/arm-none-eabi/6.3.1/thumb/v7e-m/libgcc.a(_arm_addsubdf3.o)
 .ARM.attributes
                0x00000000000001d7       0x1e /usr/lib/gcc/arm-none-eabi/6.3.1/thumb/v7e-m/libgcc.a(_arm_muldivdf3.o)
 .ARM.attributes
                0x00000000000001f5       0x1e /usr/lib/gcc/arm-none-eabi/6.3.1/thumb/v7e-m/libgcc.a(_arm_cmpdf2.o)
 .ARM.attributes
                0x0000000000000213       0x1e /usr/lib/gcc/arm-none-eabi/6.3.1/thumb/v7e-m/libgcc.a(_arm_fixunsdfsi.o)

.debug_frame    0x0000000000000000      0x810
 .debug_frame   0x0000000000000000       0x34 obj/setup.o
 .debug_frame   0x0000000000000034       0x58 obj/rand.o
 .debug_frame   0x000000000000008c      0x2a4 obj/timer_pre.o
 .debug_frame   0x0000000000000330       0x84 obj/io.o
 .debug_frame   0x00000000000003b4       0x58 obj/timer_enable.o
 .debug_frame   0x000000000000040c      0x130 obj/gpio.o
 .debug_frame   0x000000000000053c       0x88 obj/algebra.o
 .debug_frame   0x00000000000005c4       0x68 obj/main.o
 .debug_frame   0x000000000000062c       0xac /usr/lib/gcc/arm-none-eabi/6.3.1/thumb/v7e-m/libgcc.a(_arm_addsubdf3.o)
 .debug_frame   0x00000000000006d8       0x50 /usr/lib/gcc/arm-none-eabi/6.3.1/thumb/v7e-m/libgcc.a(_arm_muldivdf3.o)
 .debug_frame   0x0000000000000728       0xc4 /usr/lib/gcc/arm-none-eabi/6.3.1/thumb/v7e-m/libgcc.a(_arm_cmpdf2.o)
 .debug_frame   0x00000000000007ec       0x24 /usr/lib/gcc/arm-none-eabi/6.3.1/thumb/v7e-m/libgcc.a(_arm_fixunsdfsi.o)

.debug_ranges   0x0000000000000000       0x30
 .debug_ranges  0x0000000000000000       0x30 obj/main.o
